target datalayout = "e-m:e-p270:32:32-p271:32:32-p272:64:64-i64:64-i128:128-f80:128-n8:16:32:64-S128"
target triple = "x86_64-pc-linux-gnu"

%struct.rb_data_type_struct = type { ptr, %struct.anon.12, ptr, ptr, i64 }
%struct.anon.12 = type { ptr, ptr, ptr, ptr, [1 x ptr] }
%struct.rb_process_status = type { i32, i32, i32 }

@rb_process_status_type = internal constant %struct.rb_data_type_struct { ptr @.str.172, %struct.anon.12 { ptr null, ptr inttoptr (i64 -1 to ptr), ptr null, ptr null, [1 x ptr] zeroinitializer }, ptr null, ptr null, i64 35 }, align 8
@.str.238 = private unnamed_addr constant [8 x i8] c"pid %ld\00", align 1

; Function Attrs: nounwind sspstrong uwtable
define internal void @pst_message(i64 noundef %0, i32 noundef %1, i32 noundef %2) #0 {
  %4 = alloca i64, align 8
  %5 = alloca i32, align 4
  %6 = alloca i32, align 4
  store i64 %0, ptr %4, align 8, !tbaa !35
  store i32 %1, ptr %5, align 4, !tbaa !34
  store i32 %2, ptr %6, align 4, !tbaa !34
  %7 = load i64, ptr %4, align 8, !tbaa !35
  %8 = load i32, ptr %5, align 4, !tbaa !34
  %9 = sext i32 %8 to i64
  %10 = call i64 (i64, ptr, ...) @rb_str_catf(i64 noundef %7, ptr noundef @.str.238, i64 noundef %9)
  %11 = load i64, ptr %4, align 8, !tbaa !35
  %12 = load i32, ptr %6, align 4, !tbaa !34
  %13 = call i64 @pst_message_status(i64 noundef %11, i32 noundef %12)
  ret void
}

; Function Attrs: nounwind sspstrong uwtable
define internal i32 @pst_status(i64 noundef %0) #0 {
  %2 = alloca i64, align 8
  %3 = alloca ptr, align 8
  store i64 %0, ptr %2, align 8, !tbaa !35
  call void @llvm.lifetime.start.p0(i64 8, ptr %3) #27
  %4 = load i64, ptr %2, align 8, !tbaa !35
  %5 = call ptr @rb_check_typeddata(i64 noundef %4, ptr noundef @rb_process_status_type)
  store ptr %5, ptr %3, align 8, !tbaa !36
  %6 = load ptr, ptr %3, align 8, !tbaa !36
  %7 = getelementptr inbounds nuw %struct.rb_process_status, ptr %6, i32 0, i32 1
  %8 = load i32, ptr %7, align 4, !tbaa !40
  call void @llvm.lifetime.end.p0(i64 8, ptr %3) #27
  ret i32 %8
}

; Function Attrs: nounwind sspstrong uwtable
define internal i32 @pst_pid(i64 noundef %0) #0 {
  %2 = alloca i64, align 8
  %3 = alloca ptr, align 8
  store i64 %0, ptr %2, align 8, !tbaa !35
  call void @llvm.lifetime.start.p0(i64 8, ptr %3) #27
  %4 = load i64, ptr %2, align 8, !tbaa !35
  %5 = call ptr @rb_check_typeddata(i64 noundef %4, ptr noundef @rb_process_status_type)
  store ptr %5, ptr %3, align 8, !tbaa !36
  %6 = load ptr, ptr %3, align 8, !tbaa !36
  %7 = getelementptr inbounds nuw %struct.rb_process_status, ptr %6, i32 0, i32 0
  %8 = load i32, ptr %7, align 4, !tbaa !38
  call void @llvm.lifetime.end.p0(i64 8, ptr %3) #27
  ret i32 %8
}

; Function Attrs: nounwind sspstrong uwtable
define internal i64 @pst_to_s(i64 noundef %0) #0 {
  %2 = alloca i64, align 8
  %3 = alloca i32, align 4
  %4 = alloca i32, align 4
  %5 = alloca i64, align 8
  store i64 %0, ptr %2, align 8, !tbaa !35
  call void @llvm.lifetime.start.p0(i64 4, ptr %3) #27
  call void @llvm.lifetime.start.p0(i64 4, ptr %4) #27
  call void @llvm.lifetime.start.p0(i64 8, ptr %5) #27
  %6 = load i64, ptr %2, align 8, !tbaa !35
  %7 = call i32 @pst_pid(i64 noundef %6)
  store i32 %7, ptr %3, align 4, !tbaa !34
  %8 = load i64, ptr %2, align 8, !tbaa !35
  %9 = call i32 @pst_status(i64 noundef %8)
  store i32 %9, ptr %4, align 4, !tbaa !34
  %10 = call i64 @rb_str_buf_new(i64 noundef 0)
  store i64 %10, ptr %5, align 8, !tbaa !35
  %11 = load i64, ptr %5, align 8, !tbaa !35
  %12 = load i32, ptr %3, align 4, !tbaa !34
  %13 = load i32, ptr %4, align 4, !tbaa !34
  call void @pst_message(i64 noundef %11, i32 noundef %12, i32 noundef %13)
  %14 = load i64, ptr %5, align 8, !tbaa !35
  call void @llvm.lifetime.end.p0(i64 8, ptr %5) #27
  call void @llvm.lifetime.end.p0(i64 4, ptr %4) #27
  call void @llvm.lifetime.end.p0(i64 4, ptr %3) #27
  ret i64 %14
}