; Function Attrs: nounwind sspstrong uwtable
define internal noundef i64 @pst_to_s(i64 noundef %0) #1 {
  %2 = tail call ptr @rb_check_typeddata(i64 noundef %0, ptr noundef nonnull @rb_process_status_type) #27
  %3 = load i32, ptr %2, align 4, !tbaa !49
  %4 = tail call ptr @rb_check_typeddata(i64 noundef %0, ptr noundef nonnull @rb_process_status_type) #27
  %5 = getelementptr inbounds nuw i8, ptr %4, i64 4
  %6 = load i32, ptr %5, align 4, !tbaa !51
  %7 = tail call i64 @rb_str_buf_new(i64 noundef 0) #27
  %8 = sext i32 %3 to i64
  %9 = tail call i64 (i64, ptr, ...) @rb_str_catf(i64 noundef %7, ptr noundef nonnull @.str.238, i64 noundef %8) #27
  %10 = tail call fastcc i64 @pst_message_status(i64 noundef %7, i32 noundef %6)
  ret i64 %7
}